; Function Attrs: mustprogress uwtable
define void @_ZN11WelcomePage16showRecentFolderEv(ptr noundef nonnull align 8 dereferenceable(112) %0) local_unnamed_addr #0 align 2 personality ptr @__gxx_personality_v0 {
  %2 = alloca %class.QString, align 8
  %3 = alloca %class.QVariant, align 8
  %4 = alloca %class.QString, align 8
  %5 = tail call noundef ptr @_ZNK7QObject6senderEv(ptr noundef nonnull align 8 dereferenceable(16) %0)
  %6 = tail call noundef ptr @_ZNK11QMetaObject4castEPK7QObject(ptr noundef nonnull align 8 dereferenceable(56) @_ZN7QAction16staticMetaObjectE, ptr noundef %5)
  %.not = icmp eq ptr %6, null
  br i1 %.not, label %_ZN7QStringD2Ev.exit11, label %7

7:                                                ; preds = %1
  call void @_ZNK7QAction4dataEv(ptr dead_on_unwind nonnull writable sret(%class.QVariant) align 8 %3, ptr noundef nonnull align 8 dereferenceable(16) %6)
  invoke void @_ZNK8QVariant8toStringEv(ptr dead_on_unwind nonnull writable sret(%class.QString) align 8 %2, ptr noundef nonnull align 8 dereferenceable(32) %3)
          to label %8 unwind label %12

8:                                                ; preds = %7
  call void @_ZN8QVariantD1Ev(ptr noundef nonnull align 8 dereferenceable(32) %3) #18
  %9 = getelementptr inbounds i8, ptr %2, i64 16
  %10 = load i64, ptr %9, align 8
  %11 = icmp eq i64 %10, 0
  br i1 %11, label %_ZN7QStringD2Ev.exit, label %14

12:                                               ; preds = %7
  %13 = landingpad { ptr, i32 }
          cleanup
  call void @_ZN8QVariantD1Ev(ptr noundef nonnull align 8 dereferenceable(32) %3) #18
  br label %_ZN7QStringD2Ev.exit19

14:                                               ; preds = %8
  %15 = load ptr, ptr %2, align 8
  store ptr %15, ptr %4, align 8
  %16 = getelementptr inbounds i8, ptr %4, i64 8
  %17 = getelementptr inbounds i8, ptr %2, i64 8
  %18 = load ptr, ptr %17, align 8
  store ptr %18, ptr %16, align 8
  %19 = getelementptr inbounds i8, ptr %4, i64 16
  store i64 %10, ptr %19, align 8
  %.not.i.i.i = icmp eq ptr %15, null
  br i1 %.not.i.i.i, label %_ZN7QStringC2ERKS_.exit, label %20

20:                                               ; preds = %14
  %21 = atomicrmw add ptr %15, i32 1 seq_cst, align 4
  br label %_ZN7QStringC2ERKS_.exit

_ZN7QStringC2ERKS_.exit:                          ; preds = %14, %20
  invoke void @_Z22desktop_show_in_folder7QString(ptr noundef nonnull %4)
          to label %22 unwind label %31

22:                                               ; preds = %_ZN7QStringC2ERKS_.exit
  %23 = load ptr, ptr %4, align 8
  %.not.i.i.i7 = icmp eq ptr %23, null
  br i1 %.not.i.i.i7, label %_ZN7QStringD2Ev.exit, label %_ZN17QArrayDataPointerIDsE5derefEv.exit.i.i

_ZN17QArrayDataPointerIDsE5derefEv.exit.i.i:      ; preds = %22
  %24 = atomicrmw sub ptr %23, i32 1 seq_cst, align 4
  %.not.i.i = icmp eq i32 %24, 1
  br i1 %.not.i.i, label %25, label %_ZN7QStringD2Ev.exit

25:                                               ; preds = %_ZN17QArrayDataPointerIDsE5derefEv.exit.i.i
  %26 = load ptr, ptr %4, align 8
  call void @_ZN10QArrayData10deallocateEPS_xx(ptr noundef %26, i64 noundef 2, i64 noundef 8) #18
  br label %_ZN7QStringD2Ev.exit

_ZN7QStringD2Ev.exit:                             ; preds = %25, %_ZN17QArrayDataPointerIDsE5derefEv.exit.i.i, %22, %8
  %27 = load ptr, ptr %2, align 8
  %.not.i.i.i8 = icmp eq ptr %27, null
  br i1 %.not.i.i.i8, label %_ZN7QStringD2Ev.exit11, label %_ZN17QArrayDataPointerIDsE5derefEv.exit.i.i9

_ZN17QArrayDataPointerIDsE5derefEv.exit.i.i9:     ; preds = %_ZN7QStringD2Ev.exit
  %28 = atomicrmw sub ptr %27, i32 1 seq_cst, align 4
  %.not.i.i10 = icmp eq i32 %28, 1
  br i1 %.not.i.i10, label %29, label %_ZN7QStringD2Ev.exit11

29:                                               ; preds = %_ZN17QArrayDataPointerIDsE5derefEv.exit.i.i9
  %30 = load ptr, ptr %2, align 8
  call void @_ZN10QArrayData10deallocateEPS_xx(ptr noundef %30, i64 noundef 2, i64 noundef 8) #18
  br label %_ZN7QStringD2Ev.exit11

_ZN7QStringD2Ev.exit11:                           ; preds = %29, %_ZN17QArrayDataPointerIDsE5derefEv.exit.i.i9, %_ZN7QStringD2Ev.exit, %1
  ret void

31:                                               ; preds = %_ZN7QStringC2ERKS_.exit
  %32 = landingpad { ptr, i32 }
          cleanup
  %33 = load ptr, ptr %4, align 8
  %.not.i.i.i12 = icmp eq ptr %33, null
  br i1 %.not.i.i.i12, label %_ZN7QStringD2Ev.exit15, label %_ZN17QArrayDataPointerIDsE5derefEv.exit.i.i13

_ZN17QArrayDataPointerIDsE5derefEv.exit.i.i13:    ; preds = %31
  %34 = atomicrmw sub ptr %33, i32 1 seq_cst, align 4
  %.not.i.i14 = icmp eq i32 %34, 1
  br i1 %.not.i.i14, label %35, label %_ZN7QStringD2Ev.exit15

35:                                               ; preds = %_ZN17QArrayDataPointerIDsE5derefEv.exit.i.i13
  %36 = load ptr, ptr %4, align 8
  call void @_ZN10QArrayData10deallocateEPS_xx(ptr noundef %36, i64 noundef 2, i64 noundef 8) #18
  br label %_ZN7QStringD2Ev.exit15

_ZN7QStringD2Ev.exit15:                           ; preds = %31, %_ZN17QArrayDataPointerIDsE5derefEv.exit.i.i13, %35
  %37 = load ptr, ptr %2, align 8
  %.not.i.i.i16 = icmp eq ptr %37, null
  br i1 %.not.i.i.i16, label %_ZN7QStringD2Ev.exit19, label %_ZN17QArrayDataPointerIDsE5derefEv.exit.i.i17

_ZN17QArrayDataPointerIDsE5derefEv.exit.i.i17:    ; preds = %_ZN7QStringD2Ev.exit15
  %38 = atomicrmw sub ptr %37, i32 1 seq_cst, align 4
  %.not.i.i18 = icmp eq i32 %38, 1
  br i1 %.not.i.i18, label %39, label %_ZN7QStringD2Ev.exit19

39:                                               ; preds = %_ZN17QArrayDataPointerIDsE5derefEv.exit.i.i17
  %40 = load ptr, ptr %2, align 8
  call void @_ZN10QArrayData10deallocateEPS_xx(ptr noundef %40, i64 noundef 2, i64 noundef 8) #18
  br label %_ZN7QStringD2Ev.exit19

_ZN7QStringD2Ev.exit19:                           ; preds = %39, %_ZN17QArrayDataPointerIDsE5derefEv.exit.i.i17, %_ZN7QStringD2Ev.exit15, %12
  %.pn = phi { ptr, i32 } [ %13, %12 ], [ %32, %_ZN7QStringD2Ev.exit15 ], [ %32, %_ZN17QArrayDataPointerIDsE5derefEv.exit.i.i17 ], [ %32, %39 ]
  resume { ptr, i32 } %.pn
}